(lp0
I4
aI4
aI4
aI8
aI8
aI8
aI12
aI12
aI12
a.(lp0
F0.4
aF0.8
aF1.2
aF0.4
aF0.8
aF1.2
aF0.4
aF0.8
aF1.2
a.(lp0
F2.39602208137512
aF10.0620632171631
aF21.5539608001709
aF6.44397735595703
aF22.5066890716553
aF43.0863761901855
aF9.29614734649658
aF30.6192941665649
aF56.6717891693115
a.